; Function Attrs: mustprogress nounwind uwtable
define hidden void @_ZN5boost6detail23set_current_thread_dataEPNS0_16thread_data_baseE(ptr noundef %0) local_unnamed_addr #5 personality ptr @__gxx_personality_v0 {
  %2 = tail call noundef zeroext i1 @_ZN5boost13thread_detail17enter_once_regionERNS_9once_flagE(ptr noundef nonnull align 4 dereferenceable(4) @_ZN5boost6detail12_GLOBAL__N_128current_thread_tls_init_flagE) #32
  br i1 %2, label %_ZN5boost6detail6invokeIPFvvEJEEEDTclclsr5boostE7forwardIT_Efp_Espclsr5boostE7forwardIT0_Efp0_EEEOS4_DpOS5_.exit.i, label %_ZN5boost9call_onceIRFvvEJEEEvRNS_9once_flagEOT_DpOT0_.exit

_ZN5boost6detail6invokeIPFvvEJEEEDTclclsr5boostE7forwardIT_Efp_Espclsr5boostE7forwardIT0_Efp0_EEEOS4_DpOS5_.exit.i: ; preds = %1
  %3 = tail call i32 @pthread_key_create(ptr noundef nonnull @_ZN5boost6detail12_GLOBAL__N_122current_thread_tls_keyE, ptr noundef nonnull @_ZN5boost6detail12_GLOBAL__N_114tls_destructorEPv) #32
  tail call void @_ZN5boost13thread_detail18commit_once_regionERNS_9once_flagE(ptr noundef nonnull align 4 dereferenceable(4) @_ZN5boost6detail12_GLOBAL__N_128current_thread_tls_init_flagE) #32
  br label %_ZN5boost9call_onceIRFvvEJEEEvRNS_9once_flagEOT_DpOT0_.exit

_ZN5boost9call_onceIRFvvEJEEEvRNS_9once_flagEOT_DpOT0_.exit: ; preds = %1, %_ZN5boost6detail6invokeIPFvvEJEEEDTclclsr5boostE7forwardIT_Efp_Espclsr5boostE7forwardIT0_Efp0_EEEOS4_DpOS5_.exit.i
  %4 = load i32, ptr @_ZN5boost6detail12_GLOBAL__N_122current_thread_tls_keyE, align 4, !tbaa !54
  %5 = tail call i32 @pthread_setspecific(i32 noundef %4, ptr noundef %0) #32
  ret void
}